; ModuleID = '31/1064.c'
source_filename = "31/1064.c"
target datalayout = "e-m:e-p270:32:32-p271:32:32-p272:64:64-i64:64-f80:128-n8:16:32:64-S128"
target triple = "x86_64-pc-linux-gnu"

%struct.student = type { [20 x i8], [20 x i8], i8, i32, [10 x i8], [20 x i8] }

@.str = private unnamed_addr constant [18 x i8] c"%s %s %c %d %s %s\00", align 1
@.str.1 = private unnamed_addr constant [3 x i8] c"%s\00", align 1
@.str.2 = private unnamed_addr constant [15 x i8] c"%s %c %d %s %s\00", align 1
@.str.3 = private unnamed_addr constant [19 x i8] c"%s %s %c %d %s %s\0A\00", align 1

; Function Attrs: noinline nounwind uwtable
define dso_local i32 @main() #0 {
  %1 = alloca i32, align 4
  %2 = alloca i32, align 4
  %3 = alloca i32, align 4
  %4 = alloca [5000 x %struct.student], align 16
  store i32 0, i32* %1, align 4
  %5 = getelementptr inbounds [5000 x %struct.student], [5000 x %struct.student]* %4, i64 0, i64 0
  %6 = getelementptr inbounds %struct.student, %struct.student* %5, i32 0, i32 0
  %7 = getelementptr inbounds [20 x i8], [20 x i8]* %6, i64 0, i64 0
  %8 = getelementptr inbounds [5000 x %struct.student], [5000 x %struct.student]* %4, i64 0, i64 0
  %9 = getelementptr inbounds %struct.student, %struct.student* %8, i32 0, i32 1
  %10 = getelementptr inbounds [20 x i8], [20 x i8]* %9, i64 0, i64 0
  %11 = getelementptr inbounds [5000 x %struct.student], [5000 x %struct.student]* %4, i64 0, i64 0
  %12 = getelementptr inbounds %struct.student, %struct.student* %11, i32 0, i32 2
  %13 = getelementptr inbounds [5000 x %struct.student], [5000 x %struct.student]* %4, i64 0, i64 0
  %14 = getelementptr inbounds %struct.student, %struct.student* %13, i32 0, i32 3
  %15 = getelementptr inbounds [5000 x %struct.student], [5000 x %struct.student]* %4, i64 0, i64 0
  %16 = getelementptr inbounds %struct.student, %struct.student* %15, i32 0, i32 4
  %17 = getelementptr inbounds [10 x i8], [10 x i8]* %16, i64 0, i64 0
  %18 = getelementptr inbounds [5000 x %struct.student], [5000 x %struct.student]* %4, i64 0, i64 0
  %19 = getelementptr inbounds %struct.student, %struct.student* %18, i32 0, i32 5
  %20 = getelementptr inbounds [20 x i8], [20 x i8]* %19, i64 0, i64 0
  %21 = call i32 (i8*, ...) @__isoc99_scanf(i8* getelementptr inbounds ([18 x i8], [18 x i8]* @.str, i64 0, i64 0), i8* %7, i8* %10, i8* %12, i32* %14, i8* %17, i8* %20)
  store i32 0, i32* %2, align 4
  %22 = load i32, i32* %2, align 4
  %23 = sext i32 %22 to i64
  %24 = getelementptr inbounds [5000 x %struct.student], [5000 x %struct.student]* %4, i64 0, i64 %23
  %25 = getelementptr inbounds %struct.student, %struct.student* %24, i32 0, i32 0
  %26 = getelementptr inbounds [20 x i8], [20 x i8]* %25, i64 0, i64 0
  %27 = call i64 @strlen(i8* %26) #3
  %28 = icmp uge i64 %27, 3
  br i1 %28, label %29, label %115

29:                                               ; preds = %0
  br label %30

30:                                               ; preds = %29, %47
  %31 = load i32, i32* %2, align 4
  %32 = add nsw i32 %31, 1
  store i32 %32, i32* %2, align 4
  %33 = load i32, i32* %2, align 4
  %34 = sext i32 %33 to i64
  %35 = getelementptr inbounds [5000 x %struct.student], [5000 x %struct.student]* %4, i64 0, i64 %34
  %36 = getelementptr inbounds %struct.student, %struct.student* %35, i32 0, i32 0
  %37 = getelementptr inbounds [20 x i8], [20 x i8]* %36, i64 0, i64 0
  %38 = call i32 (i8*, ...) @__isoc99_scanf(i8* getelementptr inbounds ([3 x i8], [3 x i8]* @.str.1, i64 0, i64 0), i8* %37)
  %39 = load i32, i32* %2, align 4
  %40 = sext i32 %39 to i64
  %41 = getelementptr inbounds [5000 x %struct.student], [5000 x %struct.student]* %4, i64 0, i64 %40
  %42 = getelementptr inbounds %struct.student, %struct.student* %41, i32 0, i32 0
  %43 = getelementptr inbounds [20 x i8], [20 x i8]* %42, i64 0, i64 0
  %44 = call i64 @strlen(i8* %43) #3
  %45 = icmp eq i64 %44, 3
  br i1 %45, label %46, label %47

46:                                               ; preds = %30
  br label %72

47:                                               ; preds = %30
  %48 = load i32, i32* %2, align 4
  %49 = sext i32 %48 to i64
  %50 = getelementptr inbounds [5000 x %struct.student], [5000 x %struct.student]* %4, i64 0, i64 %49
  %51 = getelementptr inbounds %struct.student, %struct.student* %50, i32 0, i32 1
  %52 = getelementptr inbounds [20 x i8], [20 x i8]* %51, i64 0, i64 0
  %53 = load i32, i32* %2, align 4
  %54 = sext i32 %53 to i64
  %55 = getelementptr inbounds [5000 x %struct.student], [5000 x %struct.student]* %4, i64 0, i64 %54
  %56 = getelementptr inbounds %struct.student, %struct.student* %55, i32 0, i32 2
  %57 = load i32, i32* %2, align 4
  %58 = sext i32 %57 to i64
  %59 = getelementptr inbounds [5000 x %struct.student], [5000 x %struct.student]* %4, i64 0, i64 %58
  %60 = getelementptr inbounds %struct.student, %struct.student* %59, i32 0, i32 3
  %61 = load i32, i32* %2, align 4
  %62 = sext i32 %61 to i64
  %63 = getelementptr inbounds [5000 x %struct.student], [5000 x %struct.student]* %4, i64 0, i64 %62
  %64 = getelementptr inbounds %struct.student, %struct.student* %63, i32 0, i32 4
  %65 = getelementptr inbounds [10 x i8], [10 x i8]* %64, i64 0, i64 0
  %66 = load i32, i32* %2, align 4
  %67 = sext i32 %66 to i64
  %68 = getelementptr inbounds [5000 x %struct.student], [5000 x %struct.student]* %4, i64 0, i64 %67
  %69 = getelementptr inbounds %struct.student, %struct.student* %68, i32 0, i32 5
  %70 = getelementptr inbounds [20 x i8], [20 x i8]* %69, i64 0, i64 0
  %71 = call i32 (i8*, ...) @__isoc99_scanf(i8* getelementptr inbounds ([15 x i8], [15 x i8]* @.str.2, i64 0, i64 0), i8* %52, i8* %56, i32* %60, i8* %65, i8* %70)
  br label %30

72:                                               ; preds = %46
  %73 = load i32, i32* %2, align 4
  %74 = sub nsw i32 %73, 1
  store i32 %74, i32* %3, align 4
  br label %75

75:                                               ; preds = %111, %72
  %76 = load i32, i32* %3, align 4
  %77 = icmp sge i32 %76, 0
  br i1 %77, label %78, label %114

78:                                               ; preds = %75
  %79 = load i32, i32* %3, align 4
  %80 = sext i32 %79 to i64
  %81 = getelementptr inbounds [5000 x %struct.student], [5000 x %struct.student]* %4, i64 0, i64 %80
  %82 = getelementptr inbounds %struct.student, %struct.student* %81, i32 0, i32 0
  %83 = getelementptr inbounds [20 x i8], [20 x i8]* %82, i64 0, i64 0
  %84 = load i32, i32* %3, align 4
  %85 = sext i32 %84 to i64
  %86 = getelementptr inbounds [5000 x %struct.student], [5000 x %struct.student]* %4, i64 0, i64 %85
  %87 = getelementptr inbounds %struct.student, %struct.student* %86, i32 0, i32 1
  %88 = getelementptr inbounds [20 x i8], [20 x i8]* %87, i64 0, i64 0
  %89 = load i32, i32* %3, align 4
  %90 = sext i32 %89 to i64
  %91 = getelementptr inbounds [5000 x %struct.student], [5000 x %struct.student]* %4, i64 0, i64 %90
  %92 = getelementptr inbounds %struct.student, %struct.student* %91, i32 0, i32 2
  %93 = load i8, i8* %92, align 8
  %94 = sext i8 %93 to i32
  %95 = load i32, i32* %3, align 4
  %96 = sext i32 %95 to i64
  %97 = getelementptr inbounds [5000 x %struct.student], [5000 x %struct.student]* %4, i64 0, i64 %96
  %98 = getelementptr inbounds %struct.student, %struct.student* %97, i32 0, i32 3
  %99 = load i32, i32* %98, align 4
  %100 = load i32, i32* %3, align 4
  %101 = sext i32 %100 to i64
  %102 = getelementptr inbounds [5000 x %struct.student], [5000 x %struct.student]* %4, i64 0, i64 %101
  %103 = getelementptr inbounds %struct.student, %struct.student* %102, i32 0, i32 4
  %104 = getelementptr inbounds [10 x i8], [10 x i8]* %103, i64 0, i64 0
  %105 = load i32, i32* %3, align 4
  %106 = sext i32 %105 to i64
  %107 = getelementptr inbounds [5000 x %struct.student], [5000 x %struct.student]* %4, i64 0, i64 %106
  %108 = getelementptr inbounds %struct.student, %struct.student* %107, i32 0, i32 5
  %109 = getelementptr inbounds [20 x i8], [20 x i8]* %108, i64 0, i64 0
  %110 = call i32 (i8*, ...) @printf(i8* getelementptr inbounds ([19 x i8], [19 x i8]* @.str.3, i64 0, i64 0), i8* %83, i8* %88, i32 %94, i32 %99, i8* %104, i8* %109)
  br label %111

111:                                              ; preds = %78
  %112 = load i32, i32* %3, align 4
  %113 = add nsw i32 %112, -1
  store i32 %113, i32* %3, align 4
  br label %75

114:                                              ; preds = %75
  br label %115

115:                                              ; preds = %114, %0
  ret i32 0
}

declare dso_local i32 @__isoc99_scanf(i8*, ...) #1

; Function Attrs: nounwind readonly
declare dso_local i64 @strlen(i8*) #2

declare dso_local i32 @printf(i8*, ...) #1


!llvm.module.flags = !{!0}
!llvm.ident = !{!1}

!0 = !{i32 1, !"wchar_size", i32 4}
!1 = !{!"clang version 10.0.0-4ubuntu1 "}
